target datalayout = "e-m:e-p270:32:32-p271:32:32-p272:64:64-i64:64-i128:128-f80:128-n8:16:32:64-S128"
target triple = "x86_64-pc-linux-gnu"

%struct.Vec_Int_t_ = type { i32, i32, ptr }
%struct.Vec_Wec_t_ = type { i32, i32, ptr }

; Function Attrs: inlinehint nounwind uwtable
define internal i32 @Vec_IntSize(ptr noundef %0) #1 {
  %2 = alloca ptr, align 8
  store ptr %0, ptr %2, align 8, !tbaa !10
  %3 = load ptr, ptr %2, align 8, !tbaa !10
  %4 = getelementptr inbounds nuw %struct.Vec_Int_t_, ptr %3, i32 0, i32 1
  %5 = load i32, ptr %4, align 4, !tbaa !42
  ret i32 %5
}

; Function Attrs: nounwind uwtable
define i32 @Gia_ManMulFindGetOverlap(ptr noundef %0, ptr noundef %1) #0 {
  %3 = alloca ptr, align 8
  %4 = alloca ptr, align 8
  %5 = alloca i32, align 4
  %6 = alloca i32, align 4
  %7 = alloca i32, align 4
  %8 = alloca i32, align 4
  %9 = alloca i32, align 4
  store ptr %0, ptr %3, align 8, !tbaa !10
  store ptr %1, ptr %4, align 8, !tbaa !10
  call void @llvm.lifetime.start.p0(i64 4, ptr %5) #10
  call void @llvm.lifetime.start.p0(i64 4, ptr %6) #10
  call void @llvm.lifetime.start.p0(i64 4, ptr %7) #10
  call void @llvm.lifetime.start.p0(i64 4, ptr %8) #10
  call void @llvm.lifetime.start.p0(i64 4, ptr %9) #10
  store i32 0, ptr %9, align 4, !tbaa !12
  store i32 0, ptr %5, align 4, !tbaa !12
  br label %10

10:                                               ; preds = %45, %2
  %11 = load i32, ptr %5, align 4, !tbaa !12
  %12 = load ptr, ptr %3, align 8, !tbaa !10
  %13 = call i32 @Vec_IntSize(ptr noundef %12)
  %14 = icmp slt i32 %11, %13
  br i1 %14, label %15, label %19

15:                                               ; preds = %10
  %16 = load ptr, ptr %3, align 8, !tbaa !10
  %17 = load i32, ptr %5, align 4, !tbaa !12
  %18 = call i32 @Vec_IntEntry(ptr noundef %16, i32 noundef %17)
  store i32 %18, ptr %7, align 4, !tbaa !12
  br label %19

19:                                               ; preds = %15, %10
  %20 = phi i1 [ false, %10 ], [ true, %15 ]
  br i1 %20, label %21, label %48

21:                                               ; preds = %19
  store i32 0, ptr %6, align 4, !tbaa !12
  br label %22

22:                                               ; preds = %41, %21
  %23 = load i32, ptr %6, align 4, !tbaa !12
  %24 = load ptr, ptr %4, align 8, !tbaa !10
  %25 = call i32 @Vec_IntSize(ptr noundef %24)
  %26 = icmp slt i32 %23, %25
  br i1 %26, label %27, label %31

27:                                               ; preds = %22
  %28 = load ptr, ptr %4, align 8, !tbaa !10
  %29 = load i32, ptr %6, align 4, !tbaa !12
  %30 = call i32 @Vec_IntEntry(ptr noundef %28, i32 noundef %29)
  store i32 %30, ptr %8, align 4, !tbaa !12
  br label %31

31:                                               ; preds = %27, %22
  %32 = phi i1 [ false, %22 ], [ true, %27 ]
  br i1 %32, label %33, label %44

33:                                               ; preds = %31
  %34 = load i32, ptr %7, align 4, !tbaa !12
  %35 = load i32, ptr %8, align 4, !tbaa !12
  %36 = icmp eq i32 %34, %35
  br i1 %36, label %37, label %40

37:                                               ; preds = %33
  %38 = load i32, ptr %9, align 4, !tbaa !12
  %39 = add nsw i32 %38, 1
  store i32 %39, ptr %9, align 4, !tbaa !12
  br label %40

40:                                               ; preds = %37, %33
  br label %41

41:                                               ; preds = %40
  %42 = load i32, ptr %6, align 4, !tbaa !12
  %43 = add nsw i32 %42, 1
  store i32 %43, ptr %6, align 4, !tbaa !12
  br label %22, !llvm.loop !48

44:                                               ; preds = %31
  br label %45

45:                                               ; preds = %44
  %46 = load i32, ptr %5, align 4, !tbaa !12
  %47 = add nsw i32 %46, 1
  store i32 %47, ptr %5, align 4, !tbaa !12
  br label %10, !llvm.loop !49

48:                                               ; preds = %19
  %49 = load i32, ptr %9, align 4, !tbaa !12
  call void @llvm.lifetime.end.p0(i64 4, ptr %9) #10
  call void @llvm.lifetime.end.p0(i64 4, ptr %8) #10
  call void @llvm.lifetime.end.p0(i64 4, ptr %7) #10
  call void @llvm.lifetime.end.p0(i64 4, ptr %6) #10
  call void @llvm.lifetime.end.p0(i64 4, ptr %5) #10
  ret i32 %49
}

; Function Attrs: inlinehint nounwind uwtable
define internal i32 @Vec_IntEntry(ptr noundef %0, i32 noundef %1) #1 {
  %3 = alloca ptr, align 8
  %4 = alloca i32, align 4
  store ptr %0, ptr %3, align 8, !tbaa !10
  store i32 %1, ptr %4, align 4, !tbaa !12
  %5 = load ptr, ptr %3, align 8, !tbaa !10
  %6 = getelementptr inbounds nuw %struct.Vec_Int_t_, ptr %5, i32 0, i32 2
  %7 = load ptr, ptr %6, align 8, !tbaa !44
  %8 = load i32, ptr %4, align 4, !tbaa !12
  %9 = sext i32 %8 to i64
  %10 = getelementptr inbounds i32, ptr %7, i64 %9
  %11 = load i32, ptr %10, align 4, !tbaa !12
  ret i32 %11
}

; Function Attrs: inlinehint nounwind uwtable
define internal ptr @Vec_WecEntry(ptr noundef %0, i32 noundef %1) #1 {
  %3 = alloca ptr, align 8
  %4 = alloca i32, align 4
  store ptr %0, ptr %3, align 8, !tbaa !33
  store i32 %1, ptr %4, align 4, !tbaa !12
  %5 = load ptr, ptr %3, align 8, !tbaa !33
  %6 = getelementptr inbounds nuw %struct.Vec_Wec_t_, ptr %5, i32 0, i32 2
  %7 = load ptr, ptr %6, align 8, !tbaa !41
  %8 = load i32, ptr %4, align 4, !tbaa !12
  %9 = sext i32 %8 to i64
  %10 = getelementptr inbounds %struct.Vec_Int_t_, ptr %7, i64 %9
  ret ptr %10
}

; Function Attrs: inlinehint nounwind uwtable
define internal i32 @Vec_WecSize(ptr noundef %0) #1 {
  %2 = alloca ptr, align 8
  store ptr %0, ptr %2, align 8, !tbaa !33
  %3 = load ptr, ptr %2, align 8, !tbaa !33
  %4 = getelementptr inbounds nuw %struct.Vec_Wec_t_, ptr %3, i32 0, i32 1
  %5 = load i32, ptr %4, align 4, !tbaa !38
  ret i32 %5
}

; Function Attrs: nounwind uwtable
define i32 @Gia_ManMulFindMaxOverlap(ptr noundef %0, ptr noundef %1, ptr noundef %2) #0 {
  %4 = alloca ptr, align 8
  %5 = alloca ptr, align 8
  %6 = alloca ptr, align 8
  %7 = alloca ptr, align 8
  %8 = alloca i32, align 4
  %9 = alloca i32, align 4
  %10 = alloca i32, align 4
  %11 = alloca i32, align 4
  store ptr %0, ptr %4, align 8, !tbaa !33
  store ptr %1, ptr %5, align 8, !tbaa !10
  store ptr %2, ptr %6, align 8, !tbaa !10
  call void @llvm.lifetime.start.p0(i64 8, ptr %7) #10
  call void @llvm.lifetime.start.p0(i64 4, ptr %8) #10
  call void @llvm.lifetime.start.p0(i64 4, ptr %9) #10
  store i32 -1, ptr %9, align 4, !tbaa !12
  call void @llvm.lifetime.start.p0(i64 4, ptr %10) #10
  call void @llvm.lifetime.start.p0(i64 4, ptr %11) #10
  store i32 0, ptr %11, align 4, !tbaa !12
  store i32 0, ptr %8, align 4, !tbaa !12
  br label %12

12:                                               ; preds = %38, %3
  %13 = load i32, ptr %8, align 4, !tbaa !12
  %14 = load ptr, ptr %4, align 8, !tbaa !33
  %15 = call i32 @Vec_WecSize(ptr noundef %14)
  %16 = icmp slt i32 %13, %15
  br i1 %16, label %17, label %21

17:                                               ; preds = %12
  %18 = load ptr, ptr %4, align 8, !tbaa !33
  %19 = load i32, ptr %8, align 4, !tbaa !12
  %20 = call ptr @Vec_WecEntry(ptr noundef %18, i32 noundef %19)
  store ptr %20, ptr %7, align 8, !tbaa !10
  br label %21

21:                                               ; preds = %17, %12
  %22 = phi i1 [ false, %12 ], [ true, %17 ]
  br i1 %22, label %23, label %41

23:                                               ; preds = %21
  %24 = load ptr, ptr %5, align 8, !tbaa !10
  %25 = load i32, ptr %8, align 4, !tbaa !12
  %26 = call i32 @Vec_IntEntry(ptr noundef %24, i32 noundef %25)
  %27 = icmp ne i32 %26, 0
  br i1 %27, label %37, label %28

28:                                               ; preds = %23
  %29 = load i32, ptr %11, align 4, !tbaa !12
  %30 = load ptr, ptr %6, align 8, !tbaa !10
  %31 = load ptr, ptr %7, align 8, !tbaa !10
  %32 = call i32 @Gia_ManMulFindGetOverlap(ptr noundef %30, ptr noundef %31)
  store i32 %32, ptr %10, align 4, !tbaa !12
  %33 = icmp slt i32 %29, %32
  br i1 %33, label %34, label %37

34:                                               ; preds = %28
  %35 = load i32, ptr %10, align 4, !tbaa !12
  store i32 %35, ptr %11, align 4, !tbaa !12
  %36 = load i32, ptr %8, align 4, !tbaa !12
  store i32 %36, ptr %9, align 4, !tbaa !12
  br label %37

37:                                               ; preds = %34, %28, %23
  br label %38

38:                                               ; preds = %37
  %39 = load i32, ptr %8, align 4, !tbaa !12
  %40 = add nsw i32 %39, 1
  store i32 %40, ptr %8, align 4, !tbaa !12
  br label %12, !llvm.loop !52

41:                                               ; preds = %21
  %42 = load i32, ptr %9, align 4, !tbaa !12
  call void @llvm.lifetime.end.p0(i64 4, ptr %11) #10
  call void @llvm.lifetime.end.p0(i64 4, ptr %10) #10
  call void @llvm.lifetime.end.p0(i64 4, ptr %9) #10
  call void @llvm.lifetime.end.p0(i64 4, ptr %8) #10
  call void @llvm.lifetime.end.p0(i64 8, ptr %7) #10
  ret i32 %42
}