; Function Attrs: nofree norecurse nosync nounwind memory(read, inaccessiblemem: none) uwtable
define i32 @Gia_ManMulFindMaxOverlap(ptr noundef readonly captures(none) %0, ptr noundef readonly captures(none) %1, ptr noundef readonly captures(none) %2) local_unnamed_addr #4 {
  %4 = getelementptr i8, ptr %0, i64 4
  %.val17 = load i32, ptr %4, align 4, !tbaa !36
  %5 = icmp sgt i32 %.val17, 0
  br i1 %5, label %.lr.ph, label %.critedge

.lr.ph:                                           ; preds = %3
  %6 = getelementptr i8, ptr %0, i64 8
  %.val18 = load ptr, ptr %6, align 8, !tbaa !39
  %7 = getelementptr i8, ptr %1, i64 8
  %.val = load ptr, ptr %7, align 8, !tbaa !35
  %8 = getelementptr i8, ptr %2, i64 4
  %9 = getelementptr i8, ptr %2, i64 8
  %wide.trip.count = zext nneg i32 %.val17 to i64
  br label %10

10:                                               ; preds = %.lr.ph, %28
  %indvars.iv = phi i64 [ 0, %.lr.ph ], [ %indvars.iv.next, %28 ]
  %.021 = phi i32 [ 0, %.lr.ph ], [ %.1, %28 ]
  %.01319 = phi i32 [ -1, %.lr.ph ], [ %.114, %28 ]
  %11 = getelementptr inbounds nuw %struct.Vec_Int_t_, ptr %.val18, i64 %indvars.iv
  %12 = getelementptr inbounds nuw i32, ptr %.val, i64 %indvars.iv
  %13 = load i32, ptr %12, align 4, !tbaa !29
  %.not = icmp eq i32 %13, 0
  br i1 %.not, label %14, label %28

14:                                               ; preds = %10
  %.val17.i = load i32, ptr %8, align 4, !tbaa !33
  %15 = icmp sgt i32 %.val17.i, 0
  br i1 %15, label %.lr.ph24.i, label %Gia_ManMulFindGetOverlap.exit

.lr.ph24.i:                                       ; preds = %14
  %.val19.i = load ptr, ptr %9, align 8, !tbaa !35
  %16 = getelementptr i8, ptr %11, i64 4
  %.val.i = load i32, ptr %16, align 4, !tbaa !33
  %17 = icmp sgt i32 %.val.i, 0
  br i1 %17, label %.lr.ph24.split.us.i, label %Gia_ManMulFindGetOverlap.exit

.lr.ph24.split.us.i:                              ; preds = %.lr.ph24.i
  %18 = getelementptr i8, ptr %11, i64 8
  %.val18.us.i = load ptr, ptr %18, align 8, !tbaa !35
  %wide.trip.count31.i = zext nneg i32 %.val17.i to i64
  %wide.trip.count.i = zext nneg i32 %.val.i to i64
  br label %.lr.ph.us.i

.lr.ph.us.i:                                      ; preds = %..critedge2_crit_edge.us.i, %.lr.ph24.split.us.i
  %indvars.iv28.i = phi i64 [ %indvars.iv.next29.i, %..critedge2_crit_edge.us.i ], [ 0, %.lr.ph24.split.us.i ]
  %.023.us.i = phi i32 [ %spec.select.us.i, %..critedge2_crit_edge.us.i ], [ 0, %.lr.ph24.split.us.i ]
  %19 = getelementptr inbounds nuw i32, ptr %.val19.i, i64 %indvars.iv28.i
  %20 = load i32, ptr %19, align 4, !tbaa !29
  br label %21

21:                                               ; preds = %21, %.lr.ph.us.i
  %indvars.iv.i = phi i64 [ 0, %.lr.ph.us.i ], [ %indvars.iv.next.i, %21 ]
  %.121.us.i = phi i32 [ %.023.us.i, %.lr.ph.us.i ], [ %spec.select.us.i, %21 ]
  %22 = getelementptr inbounds nuw i32, ptr %.val18.us.i, i64 %indvars.iv.i
  %23 = load i32, ptr %22, align 4, !tbaa !29
  %24 = icmp eq i32 %20, %23
  %25 = zext i1 %24 to i32
  %spec.select.us.i = add nsw i32 %.121.us.i, %25
  %indvars.iv.next.i = add nuw nsw i64 %indvars.iv.i, 1
  %exitcond.not.i = icmp eq i64 %indvars.iv.next.i, %wide.trip.count.i
  br i1 %exitcond.not.i, label %..critedge2_crit_edge.us.i, label %21, !llvm.loop !46

..critedge2_crit_edge.us.i:                       ; preds = %21
  %indvars.iv.next29.i = add nuw nsw i64 %indvars.iv28.i, 1
  %exitcond32.not.i = icmp eq i64 %indvars.iv.next29.i, %wide.trip.count31.i
  br i1 %exitcond32.not.i, label %Gia_ManMulFindGetOverlap.exit, label %.lr.ph.us.i, !llvm.loop !47

Gia_ManMulFindGetOverlap.exit:                    ; preds = %..critedge2_crit_edge.us.i, %14, %.lr.ph24.i
  %.0.lcssa.i = phi i32 [ 0, %14 ], [ 0, %.lr.ph24.i ], [ %spec.select.us.i, %..critedge2_crit_edge.us.i ]
  %26 = icmp slt i32 %.021, %.0.lcssa.i
  %27 = trunc nuw nsw i64 %indvars.iv to i32
  %spec.select = select i1 %26, i32 %27, i32 %.01319
  %spec.select16 = tail call i32 @llvm.smax.i32(i32 %.021, i32 %.0.lcssa.i)
  br label %28

28:                                               ; preds = %Gia_ManMulFindGetOverlap.exit, %10
  %.114 = phi i32 [ %.01319, %10 ], [ %spec.select, %Gia_ManMulFindGetOverlap.exit ]
  %.1 = phi i32 [ %.021, %10 ], [ %spec.select16, %Gia_ManMulFindGetOverlap.exit ]
  %indvars.iv.next = add nuw nsw i64 %indvars.iv, 1
  %exitcond.not = icmp eq i64 %indvars.iv.next, %wide.trip.count
  br i1 %exitcond.not, label %.critedge, label %10, !llvm.loop !50

.critedge:                                        ; preds = %28, %3
  %.013.lcssa = phi i32 [ -1, %3 ], [ %.114, %28 ]
  ret i32 %.013.lcssa
}